target datalayout = "e-m:e-p270:32:32-p271:32:32-p272:64:64-i64:64-i128:128-f80:128-n8:16:32:64-S128"
target triple = "x86_64-pc-linux-gnu"

; Function Attrs: nounwind uwtable
define float @square(float noundef %0) #0 {
  %2 = alloca float, align 4
  store float %0, ptr %2, align 4, !tbaa !28
  %3 = load float, ptr %2, align 4, !tbaa !28
  %4 = load float, ptr %2, align 4, !tbaa !28
  %5 = fmul float %3, %4
  ret float %5
}

; Function Attrs: nounwind uwtable
define void @compute_window(i32 noundef %0, ptr noundef %1) #0 {
  %3 = alloca i32, align 4
  %4 = alloca ptr, align 8
  %5 = alloca i32, align 4
  %6 = alloca i32, align 4
  store i32 %0, ptr %3, align 4, !tbaa !8
  store ptr %1, ptr %4, align 8, !tbaa !58
  call void @llvm.lifetime.start.p0(i64 4, ptr %5) #11
  %7 = load i32, ptr %3, align 4, !tbaa !8
  %8 = ashr i32 %7, 1
  store i32 %8, ptr %5, align 4, !tbaa !8
  call void @llvm.lifetime.start.p0(i64 4, ptr %6) #11
  store i32 0, ptr %6, align 4, !tbaa !8
  br label %9

9:                                                ; preds = %34, %2
  %10 = load i32, ptr %6, align 4, !tbaa !8
  %11 = load i32, ptr %5, align 4, !tbaa !8
  %12 = icmp slt i32 %10, %11
  br i1 %12, label %13, label %37

13:                                               ; preds = %9
  %14 = load i32, ptr %6, align 4, !tbaa !8
  %15 = sub nsw i32 %14, 0
  %16 = sitofp i32 %15 to double
  %17 = fadd double %16, 5.000000e-01
  %18 = load i32, ptr %5, align 4, !tbaa !8
  %19 = sitofp i32 %18 to double
  %20 = fdiv double %17, %19
  %21 = fmul double %20, 5.000000e-01
  %22 = fmul double %21, 0x400921FB54442D18
  %23 = call double @sin(double noundef %22) #11, !tbaa !8
  %24 = fptrunc double %23 to float
  %25 = call float @square(float noundef %24)
  %26 = fpext float %25 to double
  %27 = fmul double 0x3FF921FB54442D18, %26
  %28 = call double @sin(double noundef %27) #11, !tbaa !8
  %29 = fptrunc double %28 to float
  %30 = load ptr, ptr %4, align 8, !tbaa !58
  %31 = load i32, ptr %6, align 4, !tbaa !8
  %32 = sext i32 %31 to i64
  %33 = getelementptr inbounds float, ptr %30, i64 %32
  store float %29, ptr %33, align 4, !tbaa !28
  br label %34

34:                                               ; preds = %13
  %35 = load i32, ptr %6, align 4, !tbaa !8
  %36 = add nsw i32 %35, 1
  store i32 %36, ptr %6, align 4, !tbaa !8
  br label %9, !llvm.loop !61

37:                                               ; preds = %9
  call void @llvm.lifetime.end.p0(i64 4, ptr %6) #11
  call void @llvm.lifetime.end.p0(i64 4, ptr %5) #11
  ret void
}