; Function Attrs: nofree nounwind memory(write) uwtable
define void @compute_window(i32 noundef %0, ptr noundef writeonly captures(none) %1) local_unnamed_addr #23 {
  %3 = ashr i32 %0, 1
  %4 = icmp sgt i32 %3, 0
  br i1 %4, label %.lr.ph, label %._crit_edge

.lr.ph:                                           ; preds = %2
  %5 = uitofp nneg i32 %3 to double
  %wide.trip.count = zext nneg i32 %3 to i64
  br label %6

6:                                                ; preds = %.lr.ph, %6
  %indvars.iv = phi i64 [ 0, %.lr.ph ], [ %indvars.iv.next, %6 ]
  %7 = trunc nuw nsw i64 %indvars.iv to i32
  %8 = uitofp nneg i32 %7 to double
  %9 = fadd double %8, 5.000000e-01
  %10 = fdiv double %9, %5
  %11 = fmul double %10, 5.000000e-01
  %12 = fmul double %11, 0x400921FB54442D18
  %13 = tail call double @sin(double noundef %12) #35, !tbaa !21
  %14 = fptrunc double %13 to float
  %15 = fmul float %14, %14
  %16 = fpext float %15 to double
  %17 = fmul double %16, 0x3FF921FB54442D18
  %18 = tail call double @sin(double noundef %17) #35, !tbaa !21
  %19 = fptrunc double %18 to float
  %20 = getelementptr inbounds nuw float, ptr %1, i64 %indvars.iv
  store float %19, ptr %20, align 4, !tbaa !48
  %indvars.iv.next = add nuw nsw i64 %indvars.iv, 1
  %exitcond.not = icmp eq i64 %indvars.iv.next, %wide.trip.count
  br i1 %exitcond.not, label %._crit_edge, label %6, !llvm.loop !51

._crit_edge:                                      ; preds = %6, %2
  ret void
}